target datalayout = "e-m:e-p270:32:32-p271:32:32-p272:64:64-i64:64-i128:128-f80:128-n8:16:32:64-S128"
target triple = "x86_64-unknown-linux-gnu"

%struct.QEnumLookup = type { ptr, ptr, i32 }
%struct.StatusInfo = type { i8, i8, i32 }

@RunState_lookup = external constant %struct.QEnumLookup, align 8
@.str = private unnamed_addr constant [8 x i8] c"running\00", align 1
@.str.1 = private unnamed_addr constant [11 x i8] c"singlestep\00", align 1
@.str.2 = private unnamed_addr constant [7 x i8] c"status\00", align 1

; Function Attrs: nounwind sspstrong uwtable
define dso_local zeroext i1 @visit_type_RunState(ptr noundef %v, ptr noundef %name, ptr noundef %obj, ptr noundef %errp) #0 {
entry:
  %v.addr = alloca ptr, align 8
  %name.addr = alloca ptr, align 8
  %obj.addr = alloca ptr, align 8
  %errp.addr = alloca ptr, align 8
  %value = alloca i32, align 4
  %ok = alloca i8, align 1
  store ptr %v, ptr %v.addr, align 8
  store ptr %name, ptr %name.addr, align 8
  store ptr %obj, ptr %obj.addr, align 8
  store ptr %errp, ptr %errp.addr, align 8
  %0 = load ptr, ptr %obj.addr, align 8
  %1 = load i32, ptr %0, align 4
  store i32 %1, ptr %value, align 4
  %2 = load ptr, ptr %v.addr, align 8
  %3 = load ptr, ptr %name.addr, align 8
  %4 = load ptr, ptr %errp.addr, align 8
  %call = call zeroext i1 @visit_type_enum(ptr noundef %2, ptr noundef %3, ptr noundef %value, ptr noundef @RunState_lookup, ptr noundef %4)
  %frombool = zext i1 %call to i8
  store i8 %frombool, ptr %ok, align 1
  %5 = load i32, ptr %value, align 4
  %6 = load ptr, ptr %obj.addr, align 8
  store i32 %5, ptr %6, align 4
  %7 = load i8, ptr %ok, align 1
  %tobool = trunc i8 %7 to i1
  ret i1 %tobool
}

; Function Attrs: nounwind sspstrong uwtable
define dso_local zeroext i1 @visit_type_StatusInfo_members(ptr noundef %v, ptr noundef %obj, ptr noundef %errp) #0 {
entry:
  %retval = alloca i1, align 1
  %v.addr = alloca ptr, align 8
  %obj.addr = alloca ptr, align 8
  %errp.addr = alloca ptr, align 8
  store ptr %v, ptr %v.addr, align 8
  store ptr %obj, ptr %obj.addr, align 8
  store ptr %errp, ptr %errp.addr, align 8
  %0 = load ptr, ptr %v.addr, align 8
  %1 = load ptr, ptr %obj.addr, align 8
  %running = getelementptr inbounds %struct.StatusInfo, ptr %1, i32 0, i32 0
  %2 = load ptr, ptr %errp.addr, align 8
  %call = call zeroext i1 @visit_type_bool(ptr noundef %0, ptr noundef @.str, ptr noundef %running, ptr noundef %2)
  br i1 %call, label %if.end, label %if.then

if.then:                                          ; preds = %entry
  store i1 false, ptr %retval, align 1
  br label %return

if.end:                                           ; preds = %entry
  %3 = load ptr, ptr %v.addr, align 8
  %4 = load ptr, ptr %errp.addr, align 8
  %call1 = call zeroext i1 @visit_policy_reject(ptr noundef %3, ptr noundef @.str.1, i32 noundef 1, ptr noundef %4)
  br i1 %call1, label %if.then2, label %if.end3

if.then2:                                         ; preds = %if.end
  store i1 false, ptr %retval, align 1
  br label %return

if.end3:                                          ; preds = %if.end
  %5 = load ptr, ptr %v.addr, align 8
  %call4 = call zeroext i1 @visit_policy_skip(ptr noundef %5, ptr noundef @.str.1, i32 noundef 1)
  br i1 %call4, label %if.end9, label %if.then5

if.then5:                                         ; preds = %if.end3
  %6 = load ptr, ptr %v.addr, align 8
  %7 = load ptr, ptr %obj.addr, align 8
  %singlestep = getelementptr inbounds %struct.StatusInfo, ptr %7, i32 0, i32 1
  %8 = load ptr, ptr %errp.addr, align 8
  %call6 = call zeroext i1 @visit_type_bool(ptr noundef %6, ptr noundef @.str.1, ptr noundef %singlestep, ptr noundef %8)
  br i1 %call6, label %if.end8, label %if.then7

if.then7:                                         ; preds = %if.then5
  store i1 false, ptr %retval, align 1
  br label %return

if.end8:                                          ; preds = %if.then5
  br label %if.end9

if.end9:                                          ; preds = %if.end8, %if.end3
  %9 = load ptr, ptr %v.addr, align 8
  %10 = load ptr, ptr %obj.addr, align 8
  %status = getelementptr inbounds %struct.StatusInfo, ptr %10, i32 0, i32 2
  %11 = load ptr, ptr %errp.addr, align 8
  %call10 = call zeroext i1 @visit_type_RunState(ptr noundef %9, ptr noundef @.str.2, ptr noundef %status, ptr noundef %11)
  br i1 %call10, label %if.end12, label %if.then11

if.then11:                                        ; preds = %if.end9
  store i1 false, ptr %retval, align 1
  br label %return

if.end12:                                         ; preds = %if.end9
  store i1 true, ptr %retval, align 1
  br label %return

return:                                           ; preds = %if.end12, %if.then11, %if.then7, %if.then2, %if.then
  %12 = load i1, ptr %retval, align 1
  ret i1 %12
}