; Function Attrs: nounwind sspstrong uwtable
define dso_local zeroext i1 @visit_type_StatusInfo_members(ptr noundef %v, ptr noundef %obj, ptr noundef %errp) local_unnamed_addr #0 {
entry:
  %value.i = alloca i32, align 4
  %call = tail call zeroext i1 @visit_type_bool(ptr noundef %v, ptr noundef nonnull @.str, ptr noundef %obj, ptr noundef %errp) #5
  br i1 %call, label %if.end, label %return

if.end:                                           ; preds = %entry
  %call1 = tail call zeroext i1 @visit_policy_reject(ptr noundef %v, ptr noundef nonnull @.str.1, i32 noundef 1, ptr noundef %errp) #5
  br i1 %call1, label %return, label %if.end3

if.end3:                                          ; preds = %if.end
  %call4 = tail call zeroext i1 @visit_policy_skip(ptr noundef %v, ptr noundef nonnull @.str.1, i32 noundef 1) #5
  br i1 %call4, label %if.end9, label %if.then5

if.then5:                                         ; preds = %if.end3
  %singlestep = getelementptr inbounds nuw i8, ptr %obj, i64 1
  %call6 = tail call zeroext i1 @visit_type_bool(ptr noundef %v, ptr noundef nonnull @.str.1, ptr noundef nonnull %singlestep, ptr noundef %errp) #5
  br i1 %call6, label %if.end9, label %return

if.end9:                                          ; preds = %if.then5, %if.end3
  %status = getelementptr inbounds nuw i8, ptr %obj, i64 4
  call void @llvm.lifetime.start.p0(i64 4, ptr nonnull %value.i)
  %0 = load i32, ptr %status, align 4
  store i32 %0, ptr %value.i, align 4
  %call.i = call zeroext i1 @visit_type_enum(ptr noundef %v, ptr noundef nonnull @.str.2, ptr noundef nonnull %value.i, ptr noundef nonnull @RunState_lookup, ptr noundef %errp) #5
  %1 = load i32, ptr %value.i, align 4
  store i32 %1, ptr %status, align 4
  call void @llvm.lifetime.end.p0(i64 4, ptr nonnull %value.i)
  br label %return

return:                                           ; preds = %if.end9, %if.then5, %if.end, %entry
  %retval.0 = phi i1 [ false, %entry ], [ false, %if.end ], [ false, %if.then5 ], [ %call.i, %if.end9 ]
  ret i1 %retval.0
}